target datalayout = "e-m:e-p270:32:32-p271:32:32-p272:64:64-i64:64-i128:128-f80:128-n8:16:32:64-S128"
target triple = "x86_64-pc-linux-gnu"

; Function Attrs: nounwind null_pointer_is_valid sspstrong uwtable
define zeroext i16 @hpke_aead_key_len(i16 noundef zeroext %0) #5 {
  %2 = alloca i16, align 2
  %3 = alloca i16, align 2
  store i16 %0, ptr %3, align 2
  %4 = load i16, ptr %3, align 2
  %5 = zext i16 %4 to i32
  switch i32 %5, label %9 [
    i32 1, label %6
    i32 2, label %7
    i32 3, label %8
  ]

6:                                                ; preds = %1
  store i16 16, ptr %2, align 2
  br label %10

7:                                                ; preds = %1
  store i16 32, ptr %2, align 2
  br label %10

8:                                                ; preds = %1
  store i16 32, ptr %2, align 2
  br label %10

9:                                                ; preds = %1
  store i16 0, ptr %2, align 2
  br label %10

10:                                               ; preds = %9, %8, %7, %6
  %11 = load i16, ptr %2, align 2
  ret i16 %11
}

; Function Attrs: null_pointer_is_valid sspstrong uwtable
define i32 @hpke_setup_aead(ptr noundef %0, i16 noundef zeroext %1, ptr noundef %2) #0 {
  %4 = alloca i32, align 4
  %5 = alloca ptr, align 8
  %6 = alloca i16, align 2
  %7 = alloca ptr, align 8
  %8 = alloca i32, align 4
  %9 = alloca i32, align 4
  store ptr %0, ptr %5, align 8
  store i16 %1, ptr %6, align 2
  store ptr %2, ptr %7, align 8
  call void @llvm.lifetime.start.p0(i64 4, ptr %8) #9
  %10 = load i16, ptr %6, align 2
  %11 = zext i16 %10 to i32
  switch i32 %11, label %21 [
    i32 1, label %12
    i32 2, label %15
    i32 3, label %18
  ]

12:                                               ; preds = %3
  %13 = load ptr, ptr %5, align 8
  %14 = call i32 @gcry_cipher_open(ptr noundef %13, i32 noundef 7, i32 noundef 9, i32 noundef 0)
  store i32 %14, ptr %8, align 4
  br label %22

15:                                               ; preds = %3
  %16 = load ptr, ptr %5, align 8
  %17 = call i32 @gcry_cipher_open(ptr noundef %16, i32 noundef 9, i32 noundef 9, i32 noundef 0)
  store i32 %17, ptr %8, align 4
  br label %22

18:                                               ; preds = %3
  %19 = load ptr, ptr %5, align 8
  %20 = call i32 @gcry_cipher_open(ptr noundef %19, i32 noundef 316, i32 noundef 10, i32 noundef 0)
  store i32 %20, ptr %8, align 4
  br label %22

21:                                               ; preds = %3
  store i32 12, ptr %4, align 4
  store i32 1, ptr %9, align 4
  br label %35

22:                                               ; preds = %18, %15, %12
  %23 = load i32, ptr %8, align 4
  %24 = icmp ne i32 %23, 0
  br i1 %24, label %25, label %27

25:                                               ; preds = %22
  %26 = load i32, ptr %8, align 4
  store i32 %26, ptr %4, align 4
  store i32 1, ptr %9, align 4
  br label %35

27:                                               ; preds = %22
  %28 = load ptr, ptr %5, align 8
  %29 = load ptr, ptr %28, align 8
  %30 = load ptr, ptr %7, align 8
  %31 = load i16, ptr %6, align 2
  %32 = call zeroext i16 @hpke_aead_key_len(i16 noundef zeroext %31)
  %33 = zext i16 %32 to i64
  %34 = call i32 @gcry_cipher_setkey(ptr noundef %29, ptr noundef %30, i64 noundef %33)
  store i32 %34, ptr %4, align 4
  store i32 1, ptr %9, align 4
  br label %35

35:                                               ; preds = %27, %25, %21
  call void @llvm.lifetime.end.p0(i64 4, ptr %8) #9
  %36 = load i32, ptr %4, align 4
  ret i32 %36
}