; Function Attrs: null_pointer_is_valid sspstrong uwtable
define i32 @hpke_setup_aead(ptr noundef %0, i16 noundef zeroext %1, ptr noundef %2) local_unnamed_addr #0 {
  switch i16 %1, label %13 [
    i16 1, label %4
    i16 2, label %6
    i16 3, label %8
  ]

4:                                                ; preds = %3
  %5 = tail call i32 @gcry_cipher_open(ptr noundef %0, i32 noundef 7, i32 noundef 9, i32 noundef 0)
  br label %10

6:                                                ; preds = %3
  %7 = tail call i32 @gcry_cipher_open(ptr noundef %0, i32 noundef 9, i32 noundef 9, i32 noundef 0)
  br label %10

8:                                                ; preds = %3
  %9 = tail call i32 @gcry_cipher_open(ptr noundef %0, i32 noundef 316, i32 noundef 10, i32 noundef 0)
  br label %10

10:                                               ; preds = %8, %6, %4
  %.0 = phi i32 [ %9, %8 ], [ %7, %6 ], [ %5, %4 ]
  %.not = icmp eq i32 %.0, 0
  br i1 %.not, label %hpke_aead_key_len.exit, label %13

hpke_aead_key_len.exit:                           ; preds = %10
  %11 = load ptr, ptr %0, align 8
  %switch = icmp eq i16 %1, 1
  %spec.select = select i1 %switch, i64 16, i64 32
  %12 = tail call i32 @gcry_cipher_setkey(ptr noundef %11, ptr noundef %2, i64 noundef %spec.select)
  br label %13

13:                                               ; preds = %10, %3, %hpke_aead_key_len.exit
  %.09 = phi i32 [ %12, %hpke_aead_key_len.exit ], [ 12, %3 ], [ %.0, %10 ]
  ret i32 %.09
}